; Function Attrs: mustprogress nounwind uwtable
define dso_local void @_ZNK4llvm9DbgRecord5printERNS_11raw_ostreamERNS_17ModuleSlotTrackerEb(ptr noundef nonnull align 8 dereferenceable(33) %0, ptr noundef nonnull align 8 dereferenceable(48) %1, ptr noundef nonnull align 1 %2, i1 noundef zeroext %3) local_unnamed_addr #0 align 2 {
  %5 = getelementptr inbounds nuw i8, ptr %0, i64 32
  %6 = load i8, ptr %5, align 8
  %switch = icmp eq i8 %6, 0
  br i1 %switch, label %7, label %8

7:                                                ; preds = %4
  tail call void @_ZNK4llvm17DbgVariableRecord5printERNS_11raw_ostreamERNS_17ModuleSlotTrackerEb(ptr noundef nonnull align 8 dereferenceable(96) %0, ptr noundef nonnull align 8 dereferenceable(48) %1, ptr noundef nonnull align 1 %2, i1 noundef zeroext %3) #17
  br label %9

8:                                                ; preds = %4
  tail call void @_ZNK4llvm14DbgLabelRecord5printERNS_11raw_ostreamERNS_17ModuleSlotTrackerEb(ptr noundef nonnull align 8 dereferenceable(48) %0, ptr noundef nonnull align 8 dereferenceable(48) %1, ptr noundef nonnull align 1 %2, i1 noundef zeroext %3) #17
  br label %9

9:                                                ; preds = %8, %7
  ret void
}